; ModuleID = '39/152.c'
source_filename = "39/152.c"
target datalayout = "e-m:e-p270:32:32-p271:32:32-p272:64:64-i64:64-f80:128-n8:16:32:64-S128"
target triple = "x86_64-pc-linux-gnu"

%struct.anon = type { [20 x i8], i32, i32, i8, i8, i32, i32 }

@.str = private unnamed_addr constant [3 x i8] c"%d\00", align 1
@.str.1 = private unnamed_addr constant [18 x i8] c"%s %d %d %c %c %d\00", align 1
@.str.2 = private unnamed_addr constant [10 x i8] c"%s\0A%d\0A%d\0A\00", align 1

; Function Attrs: noinline nounwind uwtable
define dso_local void @main() #0 {
  %1 = alloca [100 x %struct.anon], align 16
  %2 = alloca i32, align 4
  %3 = alloca i32, align 4
  %4 = alloca i32, align 4
  %5 = alloca i32, align 4
  store i32 0, i32* %5, align 4
  %6 = call i32 (i8*, ...) @__isoc99_scanf(i8* getelementptr inbounds ([3 x i8], [3 x i8]* @.str, i64 0, i64 0), i32* %2)
  store i32 0, i32* %3, align 4
  br label %7

7:                                                ; preds = %161, %0
  %8 = load i32, i32* %3, align 4
  %9 = load i32, i32* %2, align 4
  %10 = icmp slt i32 %8, %9
  br i1 %10, label %11, label %164

11:                                               ; preds = %7
  %12 = load i32, i32* %3, align 4
  %13 = sext i32 %12 to i64
  %14 = getelementptr inbounds [100 x %struct.anon], [100 x %struct.anon]* %1, i64 0, i64 %13
  %15 = getelementptr inbounds %struct.anon, %struct.anon* %14, i32 0, i32 0
  %16 = load i32, i32* %3, align 4
  %17 = sext i32 %16 to i64
  %18 = getelementptr inbounds [100 x %struct.anon], [100 x %struct.anon]* %1, i64 0, i64 %17
  %19 = getelementptr inbounds %struct.anon, %struct.anon* %18, i32 0, i32 1
  %20 = load i32, i32* %3, align 4
  %21 = sext i32 %20 to i64
  %22 = getelementptr inbounds [100 x %struct.anon], [100 x %struct.anon]* %1, i64 0, i64 %21
  %23 = getelementptr inbounds %struct.anon, %struct.anon* %22, i32 0, i32 2
  %24 = load i32, i32* %3, align 4
  %25 = sext i32 %24 to i64
  %26 = getelementptr inbounds [100 x %struct.anon], [100 x %struct.anon]* %1, i64 0, i64 %25
  %27 = getelementptr inbounds %struct.anon, %struct.anon* %26, i32 0, i32 3
  %28 = load i32, i32* %3, align 4
  %29 = sext i32 %28 to i64
  %30 = getelementptr inbounds [100 x %struct.anon], [100 x %struct.anon]* %1, i64 0, i64 %29
  %31 = getelementptr inbounds %struct.anon, %struct.anon* %30, i32 0, i32 4
  %32 = load i32, i32* %3, align 4
  %33 = sext i32 %32 to i64
  %34 = getelementptr inbounds [100 x %struct.anon], [100 x %struct.anon]* %1, i64 0, i64 %33
  %35 = getelementptr inbounds %struct.anon, %struct.anon* %34, i32 0, i32 5
  %36 = call i32 (i8*, ...) @__isoc99_scanf(i8* getelementptr inbounds ([18 x i8], [18 x i8]* @.str.1, i64 0, i64 0), [20 x i8]* %15, i32* %19, i32* %23, i8* %27, i8* %31, i32* %35)
  %37 = load i32, i32* %3, align 4
  %38 = sext i32 %37 to i64
  %39 = getelementptr inbounds [100 x %struct.anon], [100 x %struct.anon]* %1, i64 0, i64 %38
  %40 = getelementptr inbounds %struct.anon, %struct.anon* %39, i32 0, i32 6
  store i32 0, i32* %40, align 4
  %41 = load i32, i32* %3, align 4
  %42 = sext i32 %41 to i64
  %43 = getelementptr inbounds [100 x %struct.anon], [100 x %struct.anon]* %1, i64 0, i64 %42
  %44 = getelementptr inbounds %struct.anon, %struct.anon* %43, i32 0, i32 1
  %45 = load i32, i32* %44, align 4
  %46 = icmp sgt i32 %45, 80
  br i1 %46, label %47, label %65

47:                                               ; preds = %11
  %48 = load i32, i32* %3, align 4
  %49 = sext i32 %48 to i64
  %50 = getelementptr inbounds [100 x %struct.anon], [100 x %struct.anon]* %1, i64 0, i64 %49
  %51 = getelementptr inbounds %struct.anon, %struct.anon* %50, i32 0, i32 5
  %52 = load i32, i32* %51, align 8
  %53 = icmp sgt i32 %52, 0
  br i1 %53, label %54, label %65

54:                                               ; preds = %47
  %55 = load i32, i32* %3, align 4
  %56 = sext i32 %55 to i64
  %57 = getelementptr inbounds [100 x %struct.anon], [100 x %struct.anon]* %1, i64 0, i64 %56
  %58 = getelementptr inbounds %struct.anon, %struct.anon* %57, i32 0, i32 6
  %59 = load i32, i32* %58, align 4
  %60 = add nsw i32 %59, 8000
  %61 = load i32, i32* %3, align 4
  %62 = sext i32 %61 to i64
  %63 = getelementptr inbounds [100 x %struct.anon], [100 x %struct.anon]* %1, i64 0, i64 %62
  %64 = getelementptr inbounds %struct.anon, %struct.anon* %63, i32 0, i32 6
  store i32 %60, i32* %64, align 4
  br label %65

65:                                               ; preds = %54, %47, %11
  %66 = load i32, i32* %3, align 4
  %67 = sext i32 %66 to i64
  %68 = getelementptr inbounds [100 x %struct.anon], [100 x %struct.anon]* %1, i64 0, i64 %67
  %69 = getelementptr inbounds %struct.anon, %struct.anon* %68, i32 0, i32 1
  %70 = load i32, i32* %69, align 4
  %71 = icmp sgt i32 %70, 85
  br i1 %71, label %72, label %90

72:                                               ; preds = %65
  %73 = load i32, i32* %3, align 4
  %74 = sext i32 %73 to i64
  %75 = getelementptr inbounds [100 x %struct.anon], [100 x %struct.anon]* %1, i64 0, i64 %74
  %76 = getelementptr inbounds %struct.anon, %struct.anon* %75, i32 0, i32 2
  %77 = load i32, i32* %76, align 8
  %78 = icmp sgt i32 %77, 80
  br i1 %78, label %79, label %90

79:                                               ; preds = %72
  %80 = load i32, i32* %3, align 4
  %81 = sext i32 %80 to i64
  %82 = getelementptr inbounds [100 x %struct.anon], [100 x %struct.anon]* %1, i64 0, i64 %81
  %83 = getelementptr inbounds %struct.anon, %struct.anon* %82, i32 0, i32 6
  %84 = load i32, i32* %83, align 4
  %85 = add nsw i32 %84, 4000
  %86 = load i32, i32* %3, align 4
  %87 = sext i32 %86 to i64
  %88 = getelementptr inbounds [100 x %struct.anon], [100 x %struct.anon]* %1, i64 0, i64 %87
  %89 = getelementptr inbounds %struct.anon, %struct.anon* %88, i32 0, i32 6
  store i32 %85, i32* %89, align 4
  br label %90

90:                                               ; preds = %79, %72, %65
  %91 = load i32, i32* %3, align 4
  %92 = sext i32 %91 to i64
  %93 = getelementptr inbounds [100 x %struct.anon], [100 x %struct.anon]* %1, i64 0, i64 %92
  %94 = getelementptr inbounds %struct.anon, %struct.anon* %93, i32 0, i32 1
  %95 = load i32, i32* %94, align 4
  %96 = icmp sgt i32 %95, 90
  br i1 %96, label %97, label %108

97:                                               ; preds = %90
  %98 = load i32, i32* %3, align 4
  %99 = sext i32 %98 to i64
  %100 = getelementptr inbounds [100 x %struct.anon], [100 x %struct.anon]* %1, i64 0, i64 %99
  %101 = getelementptr inbounds %struct.anon, %struct.anon* %100, i32 0, i32 6
  %102 = load i32, i32* %101, align 4
  %103 = add nsw i32 %102, 2000
  %104 = load i32, i32* %3, align 4
  %105 = sext i32 %104 to i64
  %106 = getelementptr inbounds [100 x %struct.anon], [100 x %struct.anon]* %1, i64 0, i64 %105
  %107 = getelementptr inbounds %struct.anon, %struct.anon* %106, i32 0, i32 6
  store i32 %103, i32* %107, align 4
  br label %108

108:                                              ; preds = %97, %90
  %109 = load i32, i32* %3, align 4
  %110 = sext i32 %109 to i64
  %111 = getelementptr inbounds [100 x %struct.anon], [100 x %struct.anon]* %1, i64 0, i64 %110
  %112 = getelementptr inbounds %struct.anon, %struct.anon* %111, i32 0, i32 1
  %113 = load i32, i32* %112, align 4
  %114 = icmp sgt i32 %113, 85
  br i1 %114, label %115, label %134

115:                                              ; preds = %108
  %116 = load i32, i32* %3, align 4
  %117 = sext i32 %116 to i64
  %118 = getelementptr inbounds [100 x %struct.anon], [100 x %struct.anon]* %1, i64 0, i64 %117
  %119 = getelementptr inbounds %struct.anon, %struct.anon* %118, i32 0, i32 4
  %120 = load i8, i8* %119, align 1
  %121 = sext i8 %120 to i32
  %122 = icmp eq i32 %121, 89
  br i1 %122, label %123, label %134

123:                                              ; preds = %115
  %124 = load i32, i32* %3, align 4
  %125 = sext i32 %124 to i64
  %126 = getelementptr inbounds [100 x %struct.anon], [100 x %struct.anon]* %1, i64 0, i64 %125
  %127 = getelementptr inbounds %struct.anon, %struct.anon* %126, i32 0, i32 6
  %128 = load i32, i32* %127, align 4
  %129 = add nsw i32 %128, 1000
  %130 = load i32, i32* %3, align 4
  %131 = sext i32 %130 to i64
  %132 = getelementptr inbounds [100 x %struct.anon], [100 x %struct.anon]* %1, i64 0, i64 %131
  %133 = getelementptr inbounds %struct.anon, %struct.anon* %132, i32 0, i32 6
  store i32 %129, i32* %133, align 4
  br label %134

134:                                              ; preds = %123, %115, %108
  %135 = load i32, i32* %3, align 4
  %136 = sext i32 %135 to i64
  %137 = getelementptr inbounds [100 x %struct.anon], [100 x %struct.anon]* %1, i64 0, i64 %136
  %138 = getelementptr inbounds %struct.anon, %struct.anon* %137, i32 0, i32 2
  %139 = load i32, i32* %138, align 8
  %140 = icmp sgt i32 %139, 80
  br i1 %140, label %141, label %160

141:                                              ; preds = %134
  %142 = load i32, i32* %3, align 4
  %143 = sext i32 %142 to i64
  %144 = getelementptr inbounds [100 x %struct.anon], [100 x %struct.anon]* %1, i64 0, i64 %143
  %145 = getelementptr inbounds %struct.anon, %struct.anon* %144, i32 0, i32 3
  %146 = load i8, i8* %145, align 4
  %147 = sext i8 %146 to i32
  %148 = icmp eq i32 %147, 89
  br i1 %148, label %149, label %160

149:                                              ; preds = %141
  %150 = load i32, i32* %3, align 4
  %151 = sext i32 %150 to i64
  %152 = getelementptr inbounds [100 x %struct.anon], [100 x %struct.anon]* %1, i64 0, i64 %151
  %153 = getelementptr inbounds %struct.anon, %struct.anon* %152, i32 0, i32 6
  %154 = load i32, i32* %153, align 4
  %155 = add nsw i32 %154, 850
  %156 = load i32, i32* %3, align 4
  %157 = sext i32 %156 to i64
  %158 = getelementptr inbounds [100 x %struct.anon], [100 x %struct.anon]* %1, i64 0, i64 %157
  %159 = getelementptr inbounds %struct.anon, %struct.anon* %158, i32 0, i32 6
  store i32 %155, i32* %159, align 4
  br label %160

160:                                              ; preds = %149, %141, %134
  br label %161

161:                                              ; preds = %160
  %162 = load i32, i32* %3, align 4
  %163 = add nsw i32 %162, 1
  store i32 %163, i32* %3, align 4
  br label %7

164:                                              ; preds = %7
  store i32 0, i32* %3, align 4
  %165 = getelementptr inbounds [100 x %struct.anon], [100 x %struct.anon]* %1, i64 0, i64 0
  %166 = getelementptr inbounds %struct.anon, %struct.anon* %165, i32 0, i32 6
  %167 = load i32, i32* %166, align 4
  store i32 %167, i32* %4, align 4
  br label %168

168:                                              ; preds = %197, %164
  %169 = load i32, i32* %3, align 4
  %170 = load i32, i32* %2, align 4
  %171 = sub nsw i32 %170, 1
  %172 = icmp slt i32 %169, %171
  br i1 %172, label %173, label %200

173:                                              ; preds = %168
  %174 = load i32, i32* %5, align 4
  %175 = load i32, i32* %3, align 4
  %176 = sext i32 %175 to i64
  %177 = getelementptr inbounds [100 x %struct.anon], [100 x %struct.anon]* %1, i64 0, i64 %176
  %178 = getelementptr inbounds %struct.anon, %struct.anon* %177, i32 0, i32 6
  %179 = load i32, i32* %178, align 4
  %180 = add nsw i32 %174, %179
  store i32 %180, i32* %5, align 4
  %181 = load i32, i32* %3, align 4
  %182 = add nsw i32 %181, 1
  %183 = sext i32 %182 to i64
  %184 = getelementptr inbounds [100 x %struct.anon], [100 x %struct.anon]* %1, i64 0, i64 %183
  %185 = getelementptr inbounds %struct.anon, %struct.anon* %184, i32 0, i32 6
  %186 = load i32, i32* %185, align 4
  %187 = load i32, i32* %4, align 4
  %188 = icmp sgt i32 %186, %187
  br i1 %188, label %189, label %196

189:                                              ; preds = %173
  %190 = load i32, i32* %3, align 4
  %191 = add nsw i32 %190, 1
  %192 = sext i32 %191 to i64
  %193 = getelementptr inbounds [100 x %struct.anon], [100 x %struct.anon]* %1, i64 0, i64 %192
  %194 = getelementptr inbounds %struct.anon, %struct.anon* %193, i32 0, i32 6
  %195 = load i32, i32* %194, align 4
  store i32 %195, i32* %4, align 4
  br label %196

196:                                              ; preds = %189, %173
  br label %197

197:                                              ; preds = %196
  %198 = load i32, i32* %3, align 4
  %199 = add nsw i32 %198, 1
  store i32 %199, i32* %3, align 4
  br label %168

200:                                              ; preds = %168
  store i32 0, i32* %3, align 4
  br label %201

201:                                              ; preds = %230, %200
  %202 = load i32, i32* %3, align 4
  %203 = load i32, i32* %2, align 4
  %204 = icmp slt i32 %202, %203
  br i1 %204, label %205, label %233

205:                                              ; preds = %201
  %206 = load i32, i32* %3, align 4
  %207 = sext i32 %206 to i64
  %208 = getelementptr inbounds [100 x %struct.anon], [100 x %struct.anon]* %1, i64 0, i64 %207
  %209 = getelementptr inbounds %struct.anon, %struct.anon* %208, i32 0, i32 6
  %210 = load i32, i32* %209, align 4
  %211 = load i32, i32* %4, align 4
  %212 = icmp eq i32 %210, %211
  br i1 %212, label %213, label %229

213:                                              ; preds = %205
  %214 = load i32, i32* %3, align 4
  %215 = sext i32 %214 to i64
  %216 = getelementptr inbounds [100 x %struct.anon], [100 x %struct.anon]* %1, i64 0, i64 %215
  %217 = getelementptr inbounds %struct.anon, %struct.anon* %216, i32 0, i32 0
  %218 = getelementptr inbounds [20 x i8], [20 x i8]* %217, i64 0, i64 0
  %219 = load i32, i32* %4, align 4
  %220 = load i32, i32* %5, align 4
  %221 = load i32, i32* %2, align 4
  %222 = sub nsw i32 %221, 1
  %223 = sext i32 %222 to i64
  %224 = getelementptr inbounds [100 x %struct.anon], [100 x %struct.anon]* %1, i64 0, i64 %223
  %225 = getelementptr inbounds %struct.anon, %struct.anon* %224, i32 0, i32 6
  %226 = load i32, i32* %225, align 4
  %227 = add nsw i32 %220, %226
  %228 = call i32 (i8*, ...) @printf(i8* getelementptr inbounds ([10 x i8], [10 x i8]* @.str.2, i64 0, i64 0), i8* %218, i32 %219, i32 %227)
  br label %233

229:                                              ; preds = %205
  br label %230

230:                                              ; preds = %229
  %231 = load i32, i32* %3, align 4
  %232 = add nsw i32 %231, 1
  store i32 %232, i32* %3, align 4
  br label %201

233:                                              ; preds = %213, %201
  ret void
}

declare dso_local i32 @__isoc99_scanf(i8*, ...) #1

declare dso_local i32 @printf(i8*, ...) #1


!llvm.module.flags = !{!0}
!llvm.ident = !{!1}

!0 = !{i32 1, !"wchar_size", i32 4}
!1 = !{!"clang version 10.0.0-4ubuntu1 "}
